target datalayout = "e-m:e-p270:32:32-p271:32:32-p272:64:64-i64:64-i128:128-f80:128-n8:16:32:64-S128"
target triple = "x86_64-unknown-linux-gnu"

%struct.HistogramLiteral = type { [256 x i32], i64, double }

; Function Attrs: nounwind uwtable
define hidden i64 @BrotliHistogramReindexLiteral(ptr noundef %m, ptr noundef %out, ptr noundef %symbols, i64 noundef %length) #0 {
entry:
  %m.addr = alloca ptr, align 8
  %out.addr = alloca ptr, align 8
  %symbols.addr = alloca ptr, align 8
  %length.addr = alloca i64, align 8
  %new_index = alloca ptr, align 8
  %next_index = alloca i32, align 4
  %tmp = alloca ptr, align 8
  %i = alloca i64, align 8
  store ptr %m, ptr %m.addr, align 8
  store ptr %out, ptr %out.addr, align 8
  store ptr %symbols, ptr %symbols.addr, align 8
  store i64 %length, ptr %length.addr, align 8
  %0 = load i64, ptr %length.addr, align 8
  %cmp = icmp ugt i64 %0, 0
  br i1 %cmp, label %cond.true, label %cond.false

cond.true:                                        ; preds = %entry
  %1 = load ptr, ptr %m.addr, align 8
  %2 = load i64, ptr %length.addr, align 8
  %mul = mul i64 %2, 4
  %call = call ptr @BrotliAllocate(ptr noundef %1, i64 noundef %mul)
  br label %cond.end

cond.false:                                       ; preds = %entry
  br label %cond.end

cond.end:                                         ; preds = %cond.false, %cond.true
  %cond = phi ptr [ %call, %cond.true ], [ null, %cond.false ]
  store ptr %cond, ptr %new_index, align 8
  store i64 0, ptr %i, align 8
  br label %for.cond

for.cond:                                         ; preds = %for.inc, %cond.end
  %3 = load i64, ptr %i, align 8
  %4 = load i64, ptr %length.addr, align 8
  %cmp1 = icmp ult i64 %3, %4
  br i1 %cmp1, label %for.body, label %for.end

for.body:                                         ; preds = %for.cond
  %5 = load ptr, ptr %new_index, align 8
  %6 = load i64, ptr %i, align 8
  %arrayidx = getelementptr inbounds i32, ptr %5, i64 %6
  store i32 -1, ptr %arrayidx, align 4
  br label %for.inc

for.inc:                                          ; preds = %for.body
  %7 = load i64, ptr %i, align 8
  %inc = add i64 %7, 1
  store i64 %inc, ptr %i, align 8
  br label %for.cond, !llvm.loop !17

for.end:                                          ; preds = %for.cond
  store i32 0, ptr %next_index, align 4
  store i64 0, ptr %i, align 8
  br label %for.cond2

for.cond2:                                        ; preds = %for.inc12, %for.end
  %8 = load i64, ptr %i, align 8
  %9 = load i64, ptr %length.addr, align 8
  %cmp3 = icmp ult i64 %8, %9
  br i1 %cmp3, label %for.body4, label %for.end14

for.body4:                                        ; preds = %for.cond2
  %10 = load ptr, ptr %new_index, align 8
  %11 = load ptr, ptr %symbols.addr, align 8
  %12 = load i64, ptr %i, align 8
  %arrayidx5 = getelementptr inbounds i32, ptr %11, i64 %12
  %13 = load i32, ptr %arrayidx5, align 4
  %idxprom = zext i32 %13 to i64
  %arrayidx6 = getelementptr inbounds i32, ptr %10, i64 %idxprom
  %14 = load i32, ptr %arrayidx6, align 4
  %cmp7 = icmp eq i32 %14, -1
  br i1 %cmp7, label %if.then, label %if.end

if.then:                                          ; preds = %for.body4
  %15 = load i32, ptr %next_index, align 4
  %16 = load ptr, ptr %new_index, align 8
  %17 = load ptr, ptr %symbols.addr, align 8
  %18 = load i64, ptr %i, align 8
  %arrayidx8 = getelementptr inbounds i32, ptr %17, i64 %18
  %19 = load i32, ptr %arrayidx8, align 4
  %idxprom9 = zext i32 %19 to i64
  %arrayidx10 = getelementptr inbounds i32, ptr %16, i64 %idxprom9
  store i32 %15, ptr %arrayidx10, align 4
  %20 = load i32, ptr %next_index, align 4
  %inc11 = add i32 %20, 1
  store i32 %inc11, ptr %next_index, align 4
  br label %if.end

if.end:                                           ; preds = %if.then, %for.body4
  br label %for.inc12

for.inc12:                                        ; preds = %if.end
  %21 = load i64, ptr %i, align 8
  %inc13 = add i64 %21, 1
  store i64 %inc13, ptr %i, align 8
  br label %for.cond2, !llvm.loop !18

for.end14:                                        ; preds = %for.cond2
  %22 = load i32, ptr %next_index, align 4
  %cmp15 = icmp ugt i32 %22, 0
  br i1 %cmp15, label %cond.true16, label %cond.false19

cond.true16:                                      ; preds = %for.end14
  %23 = load ptr, ptr %m.addr, align 8
  %24 = load i32, ptr %next_index, align 4
  %conv = zext i32 %24 to i64
  %mul17 = mul i64 %conv, 1040
  %call18 = call ptr @BrotliAllocate(ptr noundef %23, i64 noundef %mul17)
  br label %cond.end20

cond.false19:                                     ; preds = %for.end14
  br label %cond.end20

cond.end20:                                       ; preds = %cond.false19, %cond.true16
  %cond21 = phi ptr [ %call18, %cond.true16 ], [ null, %cond.false19 ]
  store ptr %cond21, ptr %tmp, align 8
  store i32 0, ptr %next_index, align 4
  store i64 0, ptr %i, align 8
  br label %for.cond22

for.cond22:                                       ; preds = %for.inc43, %cond.end20
  %25 = load i64, ptr %i, align 8
  %26 = load i64, ptr %length.addr, align 8
  %cmp23 = icmp ult i64 %25, %26
  br i1 %cmp23, label %for.body25, label %for.end45

for.body25:                                       ; preds = %for.cond22
  %27 = load ptr, ptr %new_index, align 8
  %28 = load ptr, ptr %symbols.addr, align 8
  %29 = load i64, ptr %i, align 8
  %arrayidx26 = getelementptr inbounds i32, ptr %28, i64 %29
  %30 = load i32, ptr %arrayidx26, align 4
  %idxprom27 = zext i32 %30 to i64
  %arrayidx28 = getelementptr inbounds i32, ptr %27, i64 %idxprom27
  %31 = load i32, ptr %arrayidx28, align 4
  %32 = load i32, ptr %next_index, align 4
  %cmp29 = icmp eq i32 %31, %32
  br i1 %cmp29, label %if.then31, label %if.end38

if.then31:                                        ; preds = %for.body25
  %33 = load ptr, ptr %tmp, align 8
  %34 = load i32, ptr %next_index, align 4
  %idxprom32 = zext i32 %34 to i64
  %arrayidx33 = getelementptr inbounds %struct.HistogramLiteral, ptr %33, i64 %idxprom32
  %35 = load ptr, ptr %out.addr, align 8
  %36 = load ptr, ptr %symbols.addr, align 8
  %37 = load i64, ptr %i, align 8
  %arrayidx34 = getelementptr inbounds i32, ptr %36, i64 %37
  %38 = load i32, ptr %arrayidx34, align 4
  %idxprom35 = zext i32 %38 to i64
  %arrayidx36 = getelementptr inbounds %struct.HistogramLiteral, ptr %35, i64 %idxprom35
  call void @llvm.memcpy.p0.p0.i64(ptr align 8 %arrayidx33, ptr align 8 %arrayidx36, i64 1040, i1 false)
  %39 = load i32, ptr %next_index, align 4
  %inc37 = add i32 %39, 1
  store i32 %inc37, ptr %next_index, align 4
  br label %if.end38

if.end38:                                         ; preds = %if.then31, %for.body25
  %40 = load ptr, ptr %new_index, align 8
  %41 = load ptr, ptr %symbols.addr, align 8
  %42 = load i64, ptr %i, align 8
  %arrayidx39 = getelementptr inbounds i32, ptr %41, i64 %42
  %43 = load i32, ptr %arrayidx39, align 4
  %idxprom40 = zext i32 %43 to i64
  %arrayidx41 = getelementptr inbounds i32, ptr %40, i64 %idxprom40
  %44 = load i32, ptr %arrayidx41, align 4
  %45 = load ptr, ptr %symbols.addr, align 8
  %46 = load i64, ptr %i, align 8
  %arrayidx42 = getelementptr inbounds i32, ptr %45, i64 %46
  store i32 %44, ptr %arrayidx42, align 4
  br label %for.inc43

for.inc43:                                        ; preds = %if.end38
  %47 = load i64, ptr %i, align 8
  %inc44 = add i64 %47, 1
  store i64 %inc44, ptr %i, align 8
  br label %for.cond22, !llvm.loop !19

for.end45:                                        ; preds = %for.cond22
  %48 = load ptr, ptr %m.addr, align 8
  %49 = load ptr, ptr %new_index, align 8
  call void @BrotliFree(ptr noundef %48, ptr noundef %49)
  store ptr null, ptr %new_index, align 8
  store i64 0, ptr %i, align 8
  br label %for.cond46

for.cond46:                                       ; preds = %for.inc53, %for.end45
  %50 = load i64, ptr %i, align 8
  %51 = load i32, ptr %next_index, align 4
  %conv47 = zext i32 %51 to i64
  %cmp48 = icmp ult i64 %50, %conv47
  br i1 %cmp48, label %for.body50, label %for.end55

for.body50:                                       ; preds = %for.cond46
  %52 = load ptr, ptr %out.addr, align 8
  %53 = load i64, ptr %i, align 8
  %arrayidx51 = getelementptr inbounds %struct.HistogramLiteral, ptr %52, i64 %53
  %54 = load ptr, ptr %tmp, align 8
  %55 = load i64, ptr %i, align 8
  %arrayidx52 = getelementptr inbounds %struct.HistogramLiteral, ptr %54, i64 %55
  call void @llvm.memcpy.p0.p0.i64(ptr align 8 %arrayidx51, ptr align 8 %arrayidx52, i64 1040, i1 false)
  br label %for.inc53

for.inc53:                                        ; preds = %for.body50
  %56 = load i64, ptr %i, align 8
  %inc54 = add i64 %56, 1
  store i64 %inc54, ptr %i, align 8
  br label %for.cond46, !llvm.loop !20

for.end55:                                        ; preds = %for.cond46
  %57 = load ptr, ptr %m.addr, align 8
  %58 = load ptr, ptr %tmp, align 8
  call void @BrotliFree(ptr noundef %57, ptr noundef %58)
  store ptr null, ptr %tmp, align 8
  %59 = load i32, ptr %next_index, align 4
  %conv56 = zext i32 %59 to i64
  ret i64 %conv56
}